(lp1
(lp2
(lp3
S'/dat/matterhorn/env27/bin/python'
p4
aS'/dat/matterhorn/bin/scripts/python/modelportfolio_period_calculation_slrl.py'
p5
aS'/dat/matterhorn/production/portfolios/generate/SLRL_portfolios/current_libs20210616/slrl_StaticModels_SegmentABC08002130_SV_SegmentVola_mpf60_MarchRemoval_pwINF/SEGMENT0800_2130_GLOBALPORTFOLIO1/GLOBALSELECTION20211008/MODELPORTFOLIO_SLRL_6J.0_GMStaticNoEurNoNiySegABC1/input_picklefile.dat'
p6
aS'/dat/matterhorn/production/portfolios/generate/SLRL_portfolios/current_libs20210616/slrl_StaticModels_SegmentABC08002130_SV_SegmentVola_mpf60_MarchRemoval_pwINF/SEGMENT0800_2130_GLOBALPORTFOLIO1/GLOBALSELECTION20211008/MODELPORTFOLIO_SLRL_6J.0_GMStaticNoEurNoNiySegABC1/result_picklefile.dat'
p7
aa(lp8
g4
aS'/dat/matterhorn/bin/scripts/python/modelportfolio_period_calculation_slrl.py'
p9
aS'/dat/matterhorn/production/portfolios/generate/SLRL_portfolios/current_libs20210616/slrl_StaticModels_SegmentABC08002130_SV_SegmentVola_mpf60_MarchRemoval_pwINF/SEGMENT0800_2130_GLOBALPORTFOLIO1/GLOBALSELECTION20211008/MODELPORTFOLIO_SLRL_ZN.0_GMStaticNoCurve/input_picklefile.dat'
p10
aS'/dat/matterhorn/production/portfolios/generate/SLRL_portfolios/current_libs20210616/slrl_StaticModels_SegmentABC08002130_SV_SegmentVola_mpf60_MarchRemoval_pwINF/SEGMENT0800_2130_GLOBALPORTFOLIO1/GLOBALSELECTION20211008/MODELPORTFOLIO_SLRL_ZN.0_GMStaticNoCurve/result_picklefile.dat'
p11
aa(lp12
g4
aS'/dat/matterhorn/bin/scripts/python/modelportfolio_period_calculation_slrl.py'
p13
aS'/dat/matterhorn/production/portfolios/generate/SLRL_portfolios/current_libs20210616/slrl_StaticModels_SegmentABC08002130_SV_SegmentVola_mpf60_MarchRemoval_pwINF/SEGMENT0800_2130_GLOBALPORTFOLIO1/GLOBALSELECTION20211008/MODELPORTFOLIO_SLRL_R.0_GMStaticNoCurve/input_picklefile.dat'
p14
aS'/dat/matterhorn/production/portfolios/generate/SLRL_portfolios/current_libs20210616/slrl_StaticModels_SegmentABC08002130_SV_SegmentVola_mpf60_MarchRemoval_pwINF/SEGMENT0800_2130_GLOBALPORTFOLIO1/GLOBALSELECTION20211008/MODELPORTFOLIO_SLRL_R.0_GMStaticNoCurve/result_picklefile.dat'
p15
aa(lp16
g4
aS'/dat/matterhorn/bin/scripts/python/modelportfolio_period_calculation_slrl.py'
p17
aS'/dat/matterhorn/production/portfolios/generate/SLRL_portfolios/current_libs20210616/slrl_StaticModels_SegmentABC08002130_SV_SegmentVola_mpf60_MarchRemoval_pwINF/SEGMENT0800_2130_GLOBALPORTFOLIO1/GLOBALSELECTION20211008/MODELPORTFOLIO_SLRL_R.0_GMStaticCurve/input_picklefile.dat'
p18
aS'/dat/matterhorn/production/portfolios/generate/SLRL_portfolios/current_libs20210616/slrl_StaticModels_SegmentABC08002130_SV_SegmentVola_mpf60_MarchRemoval_pwINF/SEGMENT0800_2130_GLOBALPORTFOLIO1/GLOBALSELECTION20211008/MODELPORTFOLIO_SLRL_R.0_GMStaticCurve/result_picklefile.dat'
p19
aa(lp20
g4
aS'/dat/matterhorn/bin/scripts/python/modelportfolio_period_calculation_slrl.py'
p21
aS'/dat/matterhorn/production/portfolios/generate/SLRL_portfolios/current_libs20210616/slrl_StaticModels_SegmentABC08002130_SV_SegmentVola_mpf60_MarchRemoval_pwINF/SEGMENT0800_2130_GLOBALPORTFOLIO1/GLOBALSELECTION20211008/MODELPORTFOLIO_SLRL_FOAT.0_GMStaticNoCurve/input_picklefile.dat'
p22
aS'/dat/matterhorn/production/portfolios/generate/SLRL_portfolios/current_libs20210616/slrl_StaticModels_SegmentABC08002130_SV_SegmentVola_mpf60_MarchRemoval_pwINF/SEGMENT0800_2130_GLOBALPORTFOLIO1/GLOBALSELECTION20211008/MODELPORTFOLIO_SLRL_FOAT.0_GMStaticNoCurve/result_picklefile.dat'
p23
aa(lp24
g4
aS'/dat/matterhorn/bin/scripts/python/modelportfolio_period_calculation_slrl.py'
p25
aS'/dat/matterhorn/production/portfolios/generate/SLRL_portfolios/current_libs20210616/slrl_StaticModels_SegmentABC08002130_SV_SegmentVola_mpf60_MarchRemoval_pwINF/SEGMENT0800_2130_GLOBALPORTFOLIO1/GLOBALSELECTION20211008/MODELPORTFOLIO_SLRL_6E.0_GMStaticEURUSDSp2/input_picklefile.dat'
p26
aS'/dat/matterhorn/production/portfolios/generate/SLRL_portfolios/current_libs20210616/slrl_StaticModels_SegmentABC08002130_SV_SegmentVola_mpf60_MarchRemoval_pwINF/SEGMENT0800_2130_GLOBALPORTFOLIO1/GLOBALSELECTION20211008/MODELPORTFOLIO_SLRL_6E.0_GMStaticEURUSDSp2/result_picklefile.dat'
p27
aa(lp28
g4
aS'/dat/matterhorn/bin/scripts/python/modelportfolio_period_calculation_slrl.py'
p29
aS'/dat/matterhorn/production/portfolios/generate/SLRL_portfolios/current_libs20210616/slrl_StaticModels_SegmentABC08002130_SV_SegmentVola_mpf60_MarchRemoval_pwINF/SEGMENT0800_2130_GLOBALPORTFOLIO1/GLOBALSELECTION20211008/MODELPORTFOLIO_SLRL_FBTP.0_GMStaticFI/input_picklefile.dat'
p30
aS'/dat/matterhorn/production/portfolios/generate/SLRL_portfolios/current_libs20210616/slrl_StaticModels_SegmentABC08002130_SV_SegmentVola_mpf60_MarchRemoval_pwINF/SEGMENT0800_2130_GLOBALPORTFOLIO1/GLOBALSELECTION20211008/MODELPORTFOLIO_SLRL_FBTP.0_GMStaticFI/result_picklefile.dat'
p31
aa(lp32
g4
aS'/dat/matterhorn/bin/scripts/python/modelportfolio_period_calculation_slrl.py'
p33
aS'/dat/matterhorn/production/portfolios/generate/SLRL_portfolios/current_libs20210616/slrl_StaticModels_SegmentABC08002130_SV_SegmentVola_mpf60_MarchRemoval_pwINF/SEGMENT0800_2130_GLOBALPORTFOLIO1/GLOBALSELECTION20211008/MODELPORTFOLIO_SLRL_6E.0_GMStaticEURUSDSp5/input_picklefile.dat'
p34
aS'/dat/matterhorn/production/portfolios/generate/SLRL_portfolios/current_libs20210616/slrl_StaticModels_SegmentABC08002130_SV_SegmentVola_mpf60_MarchRemoval_pwINF/SEGMENT0800_2130_GLOBALPORTFOLIO1/GLOBALSELECTION20211008/MODELPORTFOLIO_SLRL_6E.0_GMStaticEURUSDSp5/result_picklefile.dat'
p35
aa(lp36
g4
aS'/dat/matterhorn/bin/scripts/python/modelportfolio_period_calculation_slrl.py'
p37
aS'/dat/matterhorn/production/portfolios/generate/SLRL_portfolios/current_libs20210616/slrl_StaticModels_SegmentABC08002130_SV_SegmentVola_mpf60_MarchRemoval_pwINF/SEGMENT0800_2130_GLOBALPORTFOLIO1/GLOBALSELECTION20211008/MODELPORTFOLIO_SLRL_6B.0_GMFullDynOnlyGBPUSDSp2/input_picklefile.dat'
p38
aS'/dat/matterhorn/production/portfolios/generate/SLRL_portfolios/current_libs20210616/slrl_StaticModels_SegmentABC08002130_SV_SegmentVola_mpf60_MarchRemoval_pwINF/SEGMENT0800_2130_GLOBALPORTFOLIO1/GLOBALSELECTION20211008/MODELPORTFOLIO_SLRL_6B.0_GMFullDynOnlyGBPUSDSp2/result_picklefile.dat'
p39
aaa.(dp1
S'continue_on_failure'
p2
I00
sS'perf_log'
p3
I00
sS'results_dir'
p4
S'ko_condor.results'
p5
s.