(lp1
(lp2
(lp3
S'/dat/matterhorn/env27/bin/python'
p4
aS'/dat/matterhorn/bin/scripts/python/modelportfolio_period_calculation_slrl.py'
p5
aS'/dat/matterhorn/production/portfolios/generate/SLRL_portfolios/current_libs20210616/slrl_SegA08001400_SV_SegmentVola_pwINF/SEGMENT0800_1400_GLOBALPORTFOLIO1/GLOBALSELECTION20210924/MODELPORTFOLIO_SLRL_FOAT.0_GMFullDynNoStirsNoLifSegA/input_picklefile.dat'
p6
aS'/dat/matterhorn/production/portfolios/generate/SLRL_portfolios/current_libs20210616/slrl_SegA08001400_SV_SegmentVola_pwINF/SEGMENT0800_1400_GLOBALPORTFOLIO1/GLOBALSELECTION20210924/MODELPORTFOLIO_SLRL_FOAT.0_GMFullDynNoStirsNoLifSegA/result_picklefile.dat'
p7
aa(lp8
g4
aS'/dat/matterhorn/bin/scripts/python/modelportfolio_period_calculation_slrl.py'
p9
aS'/dat/matterhorn/production/portfolios/generate/SLRL_portfolios/current_libs20210616/slrl_SegA08001400_SV_SegmentVola_pwINF/SEGMENT0800_1400_GLOBALPORTFOLIO1/GLOBALSELECTION20210924/MODELPORTFOLIO_SLRL_R.0_GMSemiDynNoCurveSegA/input_picklefile.dat'
p10
aS'/dat/matterhorn/production/portfolios/generate/SLRL_portfolios/current_libs20210616/slrl_SegA08001400_SV_SegmentVola_pwINF/SEGMENT0800_1400_GLOBALPORTFOLIO1/GLOBALSELECTION20210924/MODELPORTFOLIO_SLRL_R.0_GMSemiDynNoCurveSegA/result_picklefile.dat'
p11
aa(lp12
g4
aS'/dat/matterhorn/bin/scripts/python/modelportfolio_period_calculation_slrl.py'
p13
aS'/dat/matterhorn/production/portfolios/generate/SLRL_portfolios/current_libs20210616/slrl_SegA08001400_SV_SegmentVola_pwINF/SEGMENT0800_1400_GLOBALPORTFOLIO1/GLOBALSELECTION20210924/MODELPORTFOLIO_SLRL_ZN.0_GMSemiDynNoCurveSegA/input_picklefile.dat'
p14
aS'/dat/matterhorn/production/portfolios/generate/SLRL_portfolios/current_libs20210616/slrl_SegA08001400_SV_SegmentVola_pwINF/SEGMENT0800_1400_GLOBALPORTFOLIO1/GLOBALSELECTION20210924/MODELPORTFOLIO_SLRL_ZN.0_GMSemiDynNoCurveSegA/result_picklefile.dat'
p15
aa(lp16
g4
aS'/dat/matterhorn/bin/scripts/python/modelportfolio_period_calculation_slrl.py'
p17
aS'/dat/matterhorn/production/portfolios/generate/SLRL_portfolios/current_libs20210616/slrl_SegA08001400_SV_SegmentVola_pwINF/SEGMENT0800_1400_GLOBALPORTFOLIO1/GLOBALSELECTION20210924/MODELPORTFOLIO_SLRL_ES.0_GMFullDynSegA/input_picklefile.dat'
p18
aS'/dat/matterhorn/production/portfolios/generate/SLRL_portfolios/current_libs20210616/slrl_SegA08001400_SV_SegmentVola_pwINF/SEGMENT0800_1400_GLOBALPORTFOLIO1/GLOBALSELECTION20210924/MODELPORTFOLIO_SLRL_ES.0_GMFullDynSegA/result_picklefile.dat'
p19
aa(lp20
g4
aS'/dat/matterhorn/bin/scripts/python/modelportfolio_period_calculation_slrl.py'
p21
aS'/dat/matterhorn/production/portfolios/generate/SLRL_portfolios/current_libs20210616/slrl_SegA08001400_SV_SegmentVola_pwINF/SEGMENT0800_1400_GLOBALPORTFOLIO1/GLOBALSELECTION20210924/MODELPORTFOLIO_SLRL_FBTP.0_GMFullDynNoLifSegA/input_picklefile.dat'
p22
aS'/dat/matterhorn/production/portfolios/generate/SLRL_portfolios/current_libs20210616/slrl_SegA08001400_SV_SegmentVola_pwINF/SEGMENT0800_1400_GLOBALPORTFOLIO1/GLOBALSELECTION20210924/MODELPORTFOLIO_SLRL_FBTP.0_GMFullDynNoLifSegA/result_picklefile.dat'
p23
aa(lp24
g4
aS'/dat/matterhorn/bin/scripts/python/modelportfolio_period_calculation_slrl.py'
p25
aS'/dat/matterhorn/production/portfolios/generate/SLRL_portfolios/current_libs20210616/slrl_SegA08001400_SV_SegmentVola_pwINF/SEGMENT0800_1400_GLOBALPORTFOLIO1/GLOBALSELECTION20210924/MODELPORTFOLIO_SLRL_FOAT.0_GMFullDynNoLifSegA/input_picklefile.dat'
p26
aS'/dat/matterhorn/production/portfolios/generate/SLRL_portfolios/current_libs20210616/slrl_SegA08001400_SV_SegmentVola_pwINF/SEGMENT0800_1400_GLOBALPORTFOLIO1/GLOBALSELECTION20210924/MODELPORTFOLIO_SLRL_FOAT.0_GMFullDynNoLifSegA/result_picklefile.dat'
p27
aa(lp28
g4
aS'/dat/matterhorn/bin/scripts/python/modelportfolio_period_calculation_slrl.py'
p29
aS'/dat/matterhorn/production/portfolios/generate/SLRL_portfolios/current_libs20210616/slrl_SegA08001400_SV_SegmentVola_pwINF/SEGMENT0800_1400_GLOBALPORTFOLIO1/GLOBALSELECTION20210924/MODELPORTFOLIO_SLRL_R.0_GMSemiStaticFISegA/input_picklefile.dat'
p30
aS'/dat/matterhorn/production/portfolios/generate/SLRL_portfolios/current_libs20210616/slrl_SegA08001400_SV_SegmentVola_pwINF/SEGMENT0800_1400_GLOBALPORTFOLIO1/GLOBALSELECTION20210924/MODELPORTFOLIO_SLRL_R.0_GMSemiStaticFISegA/result_picklefile.dat'
p31
aa(lp32
g4
aS'/dat/matterhorn/bin/scripts/python/modelportfolio_period_calculation_slrl.py'
p33
aS'/dat/matterhorn/production/portfolios/generate/SLRL_portfolios/current_libs20210616/slrl_SegA08001400_SV_SegmentVola_pwINF/SEGMENT0800_1400_GLOBALPORTFOLIO1/GLOBALSELECTION20210924/MODELPORTFOLIO_SLRL_FGBX.0_GMFullDynNoCurveNoEurSegA/input_picklefile.dat'
p34
aS'/dat/matterhorn/production/portfolios/generate/SLRL_portfolios/current_libs20210616/slrl_SegA08001400_SV_SegmentVola_pwINF/SEGMENT0800_1400_GLOBALPORTFOLIO1/GLOBALSELECTION20210924/MODELPORTFOLIO_SLRL_FGBX.0_GMFullDynNoCurveNoEurSegA/result_picklefile.dat'
p35
aa(lp36
g4
aS'/dat/matterhorn/bin/scripts/python/modelportfolio_period_calculation_slrl.py'
p37
aS'/dat/matterhorn/production/portfolios/generate/SLRL_portfolios/current_libs20210616/slrl_SegA08001400_SV_SegmentVola_pwINF/SEGMENT0800_1400_GLOBALPORTFOLIO1/GLOBALSELECTION20210924/MODELPORTFOLIO_SLRL_FGBX.0_GMFullDynAllSegA/input_picklefile.dat'
p38
aS'/dat/matterhorn/production/portfolios/generate/SLRL_portfolios/current_libs20210616/slrl_SegA08001400_SV_SegmentVola_pwINF/SEGMENT0800_1400_GLOBALPORTFOLIO1/GLOBALSELECTION20210924/MODELPORTFOLIO_SLRL_FGBX.0_GMFullDynAllSegA/result_picklefile.dat'
p39
aa(lp40
g4
aS'/dat/matterhorn/bin/scripts/python/modelportfolio_period_calculation_slrl.py'
p41
aS'/dat/matterhorn/production/portfolios/generate/SLRL_portfolios/current_libs20210616/slrl_SegA08001400_SV_SegmentVola_pwINF/SEGMENT0800_1400_GLOBALPORTFOLIO1/GLOBALSELECTION20210924/MODELPORTFOLIO_SLRL_FGBX.0_GMFullDynNoPeriSegA/input_picklefile.dat'
p42
aS'/dat/matterhorn/production/portfolios/generate/SLRL_portfolios/current_libs20210616/slrl_SegA08001400_SV_SegmentVola_pwINF/SEGMENT0800_1400_GLOBALPORTFOLIO1/GLOBALSELECTION20210924/MODELPORTFOLIO_SLRL_FGBX.0_GMFullDynNoPeriSegA/result_picklefile.dat'
p43
aa(lp44
g4
aS'/dat/matterhorn/bin/scripts/python/modelportfolio_period_calculation_slrl.py'
p45
aS'/dat/matterhorn/production/portfolios/generate/SLRL_portfolios/current_libs20210616/slrl_SegA08001400_SV_SegmentVola_pwINF/SEGMENT0800_1400_GLOBALPORTFOLIO1/GLOBALSELECTION20210924/MODELPORTFOLIO_SLRL_ZB.0_GMFullDynNoCurveNoGoldSegA/input_picklefile.dat'
p46
aS'/dat/matterhorn/production/portfolios/generate/SLRL_portfolios/current_libs20210616/slrl_SegA08001400_SV_SegmentVola_pwINF/SEGMENT0800_1400_GLOBALPORTFOLIO1/GLOBALSELECTION20210924/MODELPORTFOLIO_SLRL_ZB.0_GMFullDynNoCurveNoGoldSegA/result_picklefile.dat'
p47
aaa(lp48
(lp49
g4
aS'/dat/matterhorn/bin/scripts/python/modelportfolio_period_calculation_slrl.py'
p50
aS'/dat/matterhorn/production/portfolios/generate/SLRL_portfolios/current_libs20210616/slrl_SegA08001400_SV_SegmentVola_pwINF/SEGMENT0800_1400_GLOBALPORTFOLIO1/GLOBALSELECTION20210924/MODELPORTFOLIO_SLRL_R.0_GMFullDynAllSegA/input_picklefile.dat'
p51
aS'/dat/matterhorn/production/portfolios/generate/SLRL_portfolios/current_libs20210616/slrl_SegA08001400_SV_SegmentVola_pwINF/SEGMENT0800_1400_GLOBALPORTFOLIO1/GLOBALSELECTION20210924/MODELPORTFOLIO_SLRL_R.0_GMFullDynAllSegA/result_picklefile.dat'
p52
aa(lp53
g4
aS'/dat/matterhorn/bin/scripts/python/modelportfolio_period_calculation_slrl.py'
p54
aS'/dat/matterhorn/production/portfolios/generate/SLRL_portfolios/current_libs20210616/slrl_SegA08001400_SV_SegmentVola_pwINF/SEGMENT0800_1400_GLOBALPORTFOLIO1/GLOBALSELECTION20210924/MODELPORTFOLIO_SLRL_ES.0_GMFullDynPureIdxSegA/input_picklefile.dat'
p55
aS'/dat/matterhorn/production/portfolios/generate/SLRL_portfolios/current_libs20210616/slrl_SegA08001400_SV_SegmentVola_pwINF/SEGMENT0800_1400_GLOBALPORTFOLIO1/GLOBALSELECTION20210924/MODELPORTFOLIO_SLRL_ES.0_GMFullDynPureIdxSegA/result_picklefile.dat'
p56
aa(lp57
g4
aS'/dat/matterhorn/bin/scripts/python/modelportfolio_period_calculation_slrl.py'
p58
aS'/dat/matterhorn/production/portfolios/generate/SLRL_portfolios/current_libs20210616/slrl_SegA08001400_SV_SegmentVola_pwINF/SEGMENT0800_1400_GLOBALPORTFOLIO1/GLOBALSELECTION20210924/MODELPORTFOLIO_SLRL_YM.0_GMFullDynSegA/input_picklefile.dat'
p59
aS'/dat/matterhorn/production/portfolios/generate/SLRL_portfolios/current_libs20210616/slrl_SegA08001400_SV_SegmentVola_pwINF/SEGMENT0800_1400_GLOBALPORTFOLIO1/GLOBALSELECTION20210924/MODELPORTFOLIO_SLRL_YM.0_GMFullDynSegA/result_picklefile.dat'
p60
aa(lp61
g4
aS'/dat/matterhorn/bin/scripts/python/modelportfolio_period_calculation_slrl.py'
p62
aS'/dat/matterhorn/production/portfolios/generate/SLRL_portfolios/current_libs20210616/slrl_SegA08001400_SV_SegmentVola_pwINF/SEGMENT0800_1400_GLOBALPORTFOLIO1/GLOBALSELECTION20210924/MODELPORTFOLIO_SLRL_6B.0_GMFullDynOnlyGBPUSDSpSgA/input_picklefile.dat'
p63
aS'/dat/matterhorn/production/portfolios/generate/SLRL_portfolios/current_libs20210616/slrl_SegA08001400_SV_SegmentVola_pwINF/SEGMENT0800_1400_GLOBALPORTFOLIO1/GLOBALSELECTION20210924/MODELPORTFOLIO_SLRL_6B.0_GMFullDynOnlyGBPUSDSpSgA/result_picklefile.dat'
p64
aa(lp65
g4
aS'/dat/matterhorn/bin/scripts/python/modelportfolio_period_calculation_slrl.py'
p66
aS'/dat/matterhorn/production/portfolios/generate/SLRL_portfolios/current_libs20210616/slrl_SegA08001400_SV_SegmentVola_pwINF/SEGMENT0800_1400_GLOBALPORTFOLIO1/GLOBALSELECTION20210924/MODELPORTFOLIO_SLRL_NIY.0_GMFullDynLimitPoolSegA/input_picklefile.dat'
p67
aS'/dat/matterhorn/production/portfolios/generate/SLRL_portfolios/current_libs20210616/slrl_SegA08001400_SV_SegmentVola_pwINF/SEGMENT0800_1400_GLOBALPORTFOLIO1/GLOBALSELECTION20210924/MODELPORTFOLIO_SLRL_NIY.0_GMFullDynLimitPoolSegA/result_picklefile.dat'
p68
aa(lp69
g4
aS'/dat/matterhorn/bin/scripts/python/modelportfolio_period_calculation_slrl.py'
p70
aS'/dat/matterhorn/production/portfolios/generate/SLRL_portfolios/current_libs20210616/slrl_SegA08001400_SV_SegmentVola_pwINF/SEGMENT0800_1400_GLOBALPORTFOLIO1/GLOBALSELECTION20210924/MODELPORTFOLIO_SLRL_6B.0_GMFullDynNoFXGoldSegA/input_picklefile.dat'
p71
aS'/dat/matterhorn/production/portfolios/generate/SLRL_portfolios/current_libs20210616/slrl_SegA08001400_SV_SegmentVola_pwINF/SEGMENT0800_1400_GLOBALPORTFOLIO1/GLOBALSELECTION20210924/MODELPORTFOLIO_SLRL_6B.0_GMFullDynNoFXGoldSegA/result_picklefile.dat'
p72
aaa.(dp1
S'continue_on_failure'
p2
I00
sS'perf_log'
p3
I00
sS'results_dir'
p4
S'ko_condor.results'
p5
s.